target datalayout = "e-m:e-p270:32:32-p271:32:32-p272:64:64-i64:64-i128:128-f80:128-n8:16:32:64-S128"
target triple = "x86_64-pc-linux-gnu"

%struct._YR_HASH_TABLE = type { i32, [0 x ptr] }
%struct._YR_HASH_TABLE_ENTRY = type { ptr, ptr, ptr, ptr }

; Function Attrs: nounwind uwtable
define void @yr_hash_table_destroy(ptr noundef %0, ptr noundef %1) #0 {
  %3 = alloca ptr, align 8
  %4 = alloca ptr, align 8
  %5 = alloca ptr, align 8
  %6 = alloca ptr, align 8
  %7 = alloca i32, align 4
  store ptr %0, ptr %3, align 8
  store ptr %1, ptr %4, align 8
  store i32 0, ptr %7, align 4
  br label %8

8:                                                ; preds = %52, %2
  %9 = load i32, ptr %7, align 4
  %10 = load ptr, ptr %3, align 8
  %11 = getelementptr inbounds %struct._YR_HASH_TABLE, ptr %10, i32 0, i32 0
  %12 = load i32, ptr %11, align 8
  %13 = icmp slt i32 %9, %12
  br i1 %13, label %14, label %55

14:                                               ; preds = %8
  %15 = load ptr, ptr %3, align 8
  %16 = getelementptr inbounds %struct._YR_HASH_TABLE, ptr %15, i32 0, i32 1
  %17 = load i32, ptr %7, align 4
  %18 = sext i32 %17 to i64
  %19 = getelementptr inbounds [0 x ptr], ptr %16, i64 0, i64 %18
  %20 = load ptr, ptr %19, align 8
  store ptr %20, ptr %5, align 8
  br label %21

21:                                               ; preds = %45, %14
  %22 = load ptr, ptr %5, align 8
  %23 = icmp ne ptr %22, null
  br i1 %23, label %24, label %51

24:                                               ; preds = %21
  %25 = load ptr, ptr %5, align 8
  %26 = getelementptr inbounds %struct._YR_HASH_TABLE_ENTRY, ptr %25, i32 0, i32 3
  %27 = load ptr, ptr %26, align 8
  store ptr %27, ptr %6, align 8
  %28 = load ptr, ptr %4, align 8
  %29 = icmp ne ptr %28, null
  br i1 %29, label %30, label %36

30:                                               ; preds = %24
  %31 = load ptr, ptr %4, align 8
  %32 = load ptr, ptr %5, align 8
  %33 = getelementptr inbounds %struct._YR_HASH_TABLE_ENTRY, ptr %32, i32 0, i32 2
  %34 = load ptr, ptr %33, align 8
  %35 = call i32 %31(ptr noundef %34)
  br label %36

36:                                               ; preds = %30, %24
  %37 = load ptr, ptr %5, align 8
  %38 = getelementptr inbounds %struct._YR_HASH_TABLE_ENTRY, ptr %37, i32 0, i32 1
  %39 = load ptr, ptr %38, align 8
  %40 = icmp ne ptr %39, null
  br i1 %40, label %41, label %45

41:                                               ; preds = %36
  %42 = load ptr, ptr %5, align 8
  %43 = getelementptr inbounds %struct._YR_HASH_TABLE_ENTRY, ptr %42, i32 0, i32 1
  %44 = load ptr, ptr %43, align 8
  call void @free(ptr noundef %44) #4
  br label %45

45:                                               ; preds = %41, %36
  %46 = load ptr, ptr %5, align 8
  %47 = getelementptr inbounds %struct._YR_HASH_TABLE_ENTRY, ptr %46, i32 0, i32 0
  %48 = load ptr, ptr %47, align 8
  call void @free(ptr noundef %48) #4
  %49 = load ptr, ptr %5, align 8
  call void @free(ptr noundef %49) #4
  %50 = load ptr, ptr %6, align 8
  store ptr %50, ptr %5, align 8
  br label %21

51:                                               ; preds = %21
  br label %52

52:                                               ; preds = %51
  %53 = load i32, ptr %7, align 4
  %54 = add nsw i32 %53, 1
  store i32 %54, ptr %7, align 4
  br label %8

55:                                               ; preds = %8
  %56 = load ptr, ptr %3, align 8
  call void @free(ptr noundef %56) #4
  ret void
}