; Function Attrs: nounwind uwtable
define void @yr_hash_table_destroy(ptr nocapture noundef %0, ptr noundef readonly %1) local_unnamed_addr #1 {
  %3 = load i32, ptr %0, align 8
  %4 = icmp sgt i32 %3, 0
  br i1 %4, label %.lr.ph24, label %._crit_edge25

.lr.ph24:                                         ; preds = %2
  %5 = getelementptr inbounds i8, ptr %0, i64 8
  %.not18 = icmp eq ptr %1, null
  br i1 %.not18, label %.lr.ph24.split.us, label %.lr.ph24.split

.lr.ph24.split.us:                                ; preds = %.lr.ph24, %._crit_edge.split.us.us
  %6 = phi i32 [ %9, %._crit_edge.split.us.us ], [ %3, %.lr.ph24 ]
  %indvars.iv28 = phi i64 [ %indvars.iv.next29, %._crit_edge.split.us.us ], [ 0, %.lr.ph24 ]
  %7 = getelementptr inbounds [0 x ptr], ptr %5, i64 0, i64 %indvars.iv28
  %8 = load ptr, ptr %7, align 8
  %.not20.us = icmp eq ptr %8, null
  br i1 %.not20.us, label %._crit_edge.split.us.us, label %.lr.ph.us

._crit_edge.split.us.us.loopexit:                 ; preds = %17
  %.pre31 = load i32, ptr %0, align 8
  br label %._crit_edge.split.us.us

._crit_edge.split.us.us:                          ; preds = %._crit_edge.split.us.us.loopexit, %.lr.ph24.split.us
  %9 = phi i32 [ %.pre31, %._crit_edge.split.us.us.loopexit ], [ %6, %.lr.ph24.split.us ]
  %indvars.iv.next29 = add nuw nsw i64 %indvars.iv28, 1
  %10 = sext i32 %9 to i64
  %11 = icmp slt i64 %indvars.iv.next29, %10
  br i1 %11, label %.lr.ph24.split.us, label %._crit_edge25

.lr.ph.us:                                        ; preds = %.lr.ph24.split.us, %17
  %.01521.us.us = phi ptr [ %13, %17 ], [ %8, %.lr.ph24.split.us ]
  %12 = getelementptr inbounds i8, ptr %.01521.us.us, i64 24
  %13 = load ptr, ptr %12, align 8
  %14 = getelementptr inbounds i8, ptr %.01521.us.us, i64 8
  %15 = load ptr, ptr %14, align 8
  %.not19.us.us = icmp eq ptr %15, null
  br i1 %.not19.us.us, label %17, label %16

16:                                               ; preds = %.lr.ph.us
  tail call void @free(ptr noundef nonnull %15) #8
  br label %17

17:                                               ; preds = %16, %.lr.ph.us
  %18 = load ptr, ptr %.01521.us.us, align 8
  tail call void @free(ptr noundef %18) #8
  tail call void @free(ptr noundef nonnull %.01521.us.us) #8
  %.not.us.us = icmp eq ptr %13, null
  br i1 %.not.us.us, label %._crit_edge.split.us.us.loopexit, label %.lr.ph.us

.lr.ph24.split:                                   ; preds = %.lr.ph24, %._crit_edge.split
  %19 = phi i32 [ %32, %._crit_edge.split ], [ %3, %.lr.ph24 ]
  %indvars.iv = phi i64 [ %indvars.iv.next, %._crit_edge.split ], [ 0, %.lr.ph24 ]
  %20 = getelementptr inbounds [0 x ptr], ptr %5, i64 0, i64 %indvars.iv
  %21 = load ptr, ptr %20, align 8
  %.not20 = icmp eq ptr %21, null
  br i1 %.not20, label %._crit_edge.split, label %.lr.ph

.lr.ph:                                           ; preds = %.lr.ph24.split, %30
  %.01521 = phi ptr [ %23, %30 ], [ %21, %.lr.ph24.split ]
  %22 = getelementptr inbounds i8, ptr %.01521, i64 24
  %23 = load ptr, ptr %22, align 8
  %24 = getelementptr inbounds i8, ptr %.01521, i64 16
  %25 = load ptr, ptr %24, align 8
  %26 = tail call i32 %1(ptr noundef %25) #8
  %27 = getelementptr inbounds i8, ptr %.01521, i64 8
  %28 = load ptr, ptr %27, align 8
  %.not19 = icmp eq ptr %28, null
  br i1 %.not19, label %30, label %29

29:                                               ; preds = %.lr.ph
  tail call void @free(ptr noundef nonnull %28) #8
  br label %30

30:                                               ; preds = %29, %.lr.ph
  %31 = load ptr, ptr %.01521, align 8
  tail call void @free(ptr noundef %31) #8
  tail call void @free(ptr noundef nonnull %.01521) #8
  %.not = icmp eq ptr %23, null
  br i1 %.not, label %._crit_edge.split.loopexit, label %.lr.ph

._crit_edge.split.loopexit:                       ; preds = %30
  %.pre = load i32, ptr %0, align 8
  br label %._crit_edge.split

._crit_edge.split:                                ; preds = %._crit_edge.split.loopexit, %.lr.ph24.split
  %32 = phi i32 [ %.pre, %._crit_edge.split.loopexit ], [ %19, %.lr.ph24.split ]
  %indvars.iv.next = add nuw nsw i64 %indvars.iv, 1
  %33 = sext i32 %32 to i64
  %34 = icmp slt i64 %indvars.iv.next, %33
  br i1 %34, label %.lr.ph24.split, label %._crit_edge25

._crit_edge25:                                    ; preds = %._crit_edge.split, %._crit_edge.split.us.us, %2
  tail call void @free(ptr noundef nonnull %0) #8
  ret void
}